; Function Attrs: mustprogress nofree norecurse nosync nounwind willreturn memory(read, inaccessiblemem: none) uwtable
define noundef range(i64 -2147483648, 2147483648) i64 @_ZNK13sentencepiece31ImmutableNBestSentencePieceText11nbests_sizeEv(ptr nocapture noundef nonnull readonly align 8 dereferenceable(24) %0) local_unnamed_addr #7 align 2 {
  %2 = getelementptr inbounds i8, ptr %0, i64 8
  %3 = load ptr, ptr %2, align 8
  %.not = icmp eq ptr %3, null
  br i1 %.not, label %8, label %4

4:                                                ; preds = %1
  %5 = getelementptr inbounds i8, ptr %3, i64 24
  %6 = load i32, ptr %5, align 8
  %7 = sext i32 %6 to i64
  br label %8

8:                                                ; preds = %1, %4
  %9 = phi i64 [ %7, %4 ], [ 0, %1 ]
  ret i64 %9
}